target datalayout = "e-m:e-p270:32:32-p271:32:32-p272:64:64-i64:64-i128:128-f80:128-n8:16:32:64-S128"
target triple = "x86_64-unknown-linux-gnu"

%"class.absl::Mutex" = type { %"struct.std::atomic" }
%"struct.std::atomic" = type { %"struct.std::__atomic_base" }
%"struct.std::__atomic_base" = type { i64 }
%class.anon.333 = type { i8 }

@.str = private unnamed_addr constant [6 x i8] c"Mutex\00", align 1

; Function Attrs: mustprogress nounwind uwtable
define linkonce_odr dso_local void @_ZNSt13__atomic_baseIlEC2El(ptr noundef nonnull align 8 dereferenceable(8) %this, i64 noundef %__i) unnamed_addr #7 comdat align 2 {
entry:
  %this.addr = alloca ptr, align 8
  %__i.addr = alloca i64, align 8
  store ptr %this, ptr %this.addr, align 8
  store i64 %__i, ptr %__i.addr, align 8
  %this1 = load ptr, ptr %this.addr, align 8
  %_M_i = getelementptr inbounds %"struct.std::__atomic_base", ptr %this1, i32 0, i32 0
  %0 = load i64, ptr %__i.addr, align 8
  store i64 %0, ptr %_M_i, align 8
  ret void
}

; Function Attrs: mustprogress nounwind uwtable
define linkonce_odr dso_local void @_ZNSt6atomicIlEC2El(ptr noundef nonnull align 8 dereferenceable(8) %this, i64 noundef %__i) unnamed_addr #7 comdat align 2 {
entry:
  %this.addr = alloca ptr, align 8
  %__i.addr = alloca i64, align 8
  store ptr %this, ptr %this.addr, align 8
  store i64 %__i, ptr %__i.addr, align 8
  %this1 = load ptr, ptr %this.addr, align 8
  %0 = load i64, ptr %__i.addr, align 8
  call void @_ZNSt13__atomic_baseIlEC2El(ptr noundef nonnull align 8 dereferenceable(8) %this1, i64 noundef %0) #3
  ret void
}

; Function Attrs: noreturn nounwind uwtable
define linkonce_odr hidden void @__clang_call_terminate(ptr noundef %0) #9 comdat {
  %2 = call ptr @__cxa_begin_catch(ptr %0) #3
  call void @_ZSt9terminatev() #27
  unreachable
}

; Function Attrs: mustprogress nounwind uwtable
define linkonce_odr dso_local void @_ZN4absl5MutexC2Ev(ptr noundef nonnull align 8 dereferenceable(8) %this) unnamed_addr #7 comdat align 2 {
entry:
  %this.addr = alloca ptr, align 8
  store ptr %this, ptr %this.addr, align 8
  %this1 = load ptr, ptr %this.addr, align 8
  %mu_ = getelementptr inbounds %"class.absl::Mutex", ptr %this1, i32 0, i32 0
  call void @_ZNSt6atomicIlEC2El(ptr noundef nonnull align 8 dereferenceable(8) %mu_, i64 noundef 0) #3
  ret void
}

; Function Attrs: mustprogress nounwind uwtable
define internal noundef ptr @"_ZZN12_GLOBAL__N_130Mutex_LoggingAddressReuse_Test8TestBodyEvENK3$_0cvPFvPvEEv"(ptr noundef nonnull align 1 dereferenceable(1) %this) #7 align 2 {
entry:
  %this.addr = alloca ptr, align 8
  store ptr %this, ptr %this.addr, align 8
  ret ptr @"_ZZN12_GLOBAL__N_130Mutex_LoggingAddressReuse_Test8TestBodyEvEN3$_08__invokeEPv"
}

; Function Attrs: mustprogress uwtable
define internal void @_ZN12_GLOBAL__N_130Mutex_LoggingAddressReuse_Test8TestBodyEv(ptr noundef nonnull align 8 dereferenceable(16) %this) unnamed_addr #4 align 2 personality ptr @__gxx_personality_v0 {
entry:
  %this.addr.i4 = alloca ptr, align 8
  %this.addr.i = alloca ptr, align 8
  %this.addr = alloca ptr, align 8
  %storage = alloca [8 x i8], align 8
  %invariant = alloca ptr, align 8
  %ref.tmp = alloca %class.anon.333, align 1
  %kIters = alloca i64, align 8
  %alive = alloca [10 x i8], align 1
  %i = alloca i64, align 8
  %mu = alloca ptr, align 8
  store ptr %this, ptr %this.addr, align 8
  %call = call noundef ptr @"_ZZN12_GLOBAL__N_130Mutex_LoggingAddressReuse_Test8TestBodyEvENK3$_0cvPFvPvEEv"(ptr noundef nonnull align 1 dereferenceable(1) %ref.tmp) #3
  store ptr %call, ptr %invariant, align 8
  store i64 10, ptr %kIters, align 8
  call void @llvm.memset.p0.i64(ptr align 1 %alive, i8 0, i64 10, i1 false)
  store i64 0, ptr %i, align 8
  br label %for.cond

for.cond:                                         ; preds = %for.inc, %entry
  %0 = load i64, ptr %i, align 8
  %cmp = icmp ult i64 %0, 10
  br i1 %cmp, label %for.body, label %for.end

for.body:                                         ; preds = %for.cond
  %arraydecay = getelementptr inbounds [8 x i8], ptr %storage, i64 0, i64 0
  call void @_ZN4absl5MutexC2Ev(ptr noundef nonnull align 8 dereferenceable(8) %arraydecay)
  store ptr %arraydecay, ptr %mu, align 8
  %1 = load i64, ptr %i, align 8
  %arrayidx = getelementptr inbounds [10 x i8], ptr %alive, i64 0, i64 %1
  store i8 1, ptr %arrayidx, align 1
  %2 = load ptr, ptr %mu, align 8
  call void @_ZN4absl5Mutex14EnableDebugLogEPKc(ptr noundef nonnull align 8 dereferenceable(8) %2, ptr noundef @.str)
  %3 = load ptr, ptr %mu, align 8
  %4 = load ptr, ptr %invariant, align 8
  %5 = load i64, ptr %i, align 8
  %arrayidx2 = getelementptr inbounds [10 x i8], ptr %alive, i64 0, i64 %5
  call void @_ZN4absl5Mutex24EnableInvariantDebuggingEPFvPvES1_(ptr noundef nonnull align 8 dereferenceable(8) %3, ptr noundef %4, ptr noundef %arrayidx2)
  %6 = load ptr, ptr %mu, align 8
  call void @_ZN4absl5Mutex4LockEv(ptr noundef nonnull align 8 dereferenceable(8) %6)
  %7 = load ptr, ptr %mu, align 8
  call void @_ZN4absl5Mutex6UnlockEv(ptr noundef nonnull align 8 dereferenceable(8) %7)
  %8 = load ptr, ptr %mu, align 8
  store ptr %8, ptr %this.addr.i, align 8
  %this1.i = load ptr, ptr %this.addr.i, align 8
  store ptr %this1.i, ptr %this.addr.i4, align 8
  br label %_ZN4absl5MutexD2Ev.exit

terminate.lpad.i:                                 ; No predecessors!
  %9 = landingpad { ptr, i32 }
          catch ptr null
  %10 = extractvalue { ptr, i32 } %9, 0
  call void @__clang_call_terminate(ptr %10) #27
  unreachable

_ZN4absl5MutexD2Ev.exit:                          ; preds = %for.body
  %11 = load i64, ptr %i, align 8
  %arrayidx3 = getelementptr inbounds [10 x i8], ptr %alive, i64 0, i64 %11
  store i8 0, ptr %arrayidx3, align 1
  br label %for.inc

for.inc:                                          ; preds = %_ZN4absl5MutexD2Ev.exit
  %12 = load i64, ptr %i, align 8
  %inc = add i64 %12, 1
  store i64 %inc, ptr %i, align 8
  br label %for.cond, !llvm.loop !42

for.end:                                          ; preds = %for.cond
  ret void
}