; Function Attrs: mustprogress uwtable
define internal void @_ZN12_GLOBAL__N_130Mutex_LoggingAddressReuse_Test8TestBodyEv(ptr nocapture nonnull readnone align 8 %this) unnamed_addr #3 align 2 personality ptr @__gxx_personality_v0 {
entry:
  %storage = alloca [8 x i8], align 8
  %alive = alloca [10 x i8], align 1
  call void @llvm.memset.p0.i64(ptr noundef nonnull align 1 dereferenceable(10) %alive, i8 0, i64 10, i1 false)
  br label %for.body

for.body:                                         ; preds = %entry, %for.body
  %i.09 = phi i64 [ 0, %entry ], [ %inc, %for.body ]
  store i64 0, ptr %storage, align 8
  %arrayidx = getelementptr inbounds [10 x i8], ptr %alive, i64 0, i64 %i.09
  store i8 1, ptr %arrayidx, align 1
  call void @_ZN4absl5Mutex14EnableDebugLogEPKc(ptr noundef nonnull align 8 dereferenceable(8) %storage, ptr noundef nonnull @.str)
  call void @_ZN4absl5Mutex24EnableInvariantDebuggingEPFvPvES1_(ptr noundef nonnull align 8 dereferenceable(8) %storage, ptr noundef nonnull @"_ZZN12_GLOBAL__N_130Mutex_LoggingAddressReuse_Test8TestBodyEvEN3$_08__invokeEPv", ptr noundef nonnull %arrayidx)
  call void @_ZN4absl5Mutex4LockEv(ptr noundef nonnull align 8 dereferenceable(8) %storage)
  call void @_ZN4absl5Mutex6UnlockEv(ptr noundef nonnull align 8 dereferenceable(8) %storage)
  store i8 0, ptr %arrayidx, align 1
  %inc = add nuw nsw i64 %i.09, 1
  %exitcond.not = icmp eq i64 %inc, 10
  br i1 %exitcond.not, label %for.end, label %for.body, !llvm.loop !304

for.end:                                          ; preds = %for.body
  ret void
}